; Function Attrs: nounwind uwtable
define void @dt_control_paste_history(ptr noundef %0) local_unnamed_addr #0 {
  %2 = load ptr, ptr getelementptr inbounds nuw (i8, ptr @darktable, i64 80), align 8, !tbaa !109
  %3 = getelementptr inbounds nuw i8, ptr %2, i64 40
  %4 = load i32, ptr %3, align 8, !tbaa !110
  %5 = icmp sgt i32 %4, 0
  br i1 %5, label %7, label %6

6:                                                ; preds = %1
  tail call void @g_list_free(ptr noundef %0) #17
  br label %8

7:                                                ; preds = %1
  tail call fastcc void @_add_history_job(ptr noundef %0, ptr noundef nonnull @.str.40, ptr noundef nonnull @_control_paste_history_job_run, ptr noundef null)
  br label %8

8:                                                ; preds = %7, %6
  ret void
}